; Function Attrs: mustprogress nofree nounwind willreturn memory(write, argmem: readwrite) uwtable
define void @_ZNK3g2o17RobustKernelHuber9robustifyEdRN5Eigen6MatrixIdLi3ELi1ELi0ELi3ELi1EEE(ptr noundef nonnull readonly align 8 captures(none) dereferenceable(16) %0, double noundef %1, ptr noundef nonnull writeonly align 8 captures(none) dereferenceable(24) initializes((0, 24)) %2) unnamed_addr #6 align 2 personality ptr @__gxx_personality_v0 {
  %4 = getelementptr inbounds nuw i8, ptr %0, i64 8
  %5 = load double, ptr %4, align 8, !tbaa !21
  %6 = fmul double %5, %5
  %7 = fcmp ugt double %1, %6
  br i1 %7, label %9, label %8

8:                                                ; preds = %3
  store double %1, ptr %2, align 8, !tbaa !24
  br label %18

9:                                                ; preds = %3
  %10 = tail call double @sqrt(double noundef %1) #21, !tbaa !15
  %11 = fmul double %10, 2.000000e+00
  %12 = fneg double %6
  %13 = tail call double @llvm.fmuladd.f64(double %11, double %5, double %12)
  store double %13, ptr %2, align 8, !tbaa !24
  %14 = load double, ptr %4, align 8, !tbaa !21
  %15 = fdiv double %14, %10
  %16 = fmul double %15, -5.000000e-01
  %17 = fdiv double %16, %1
  br label %18

18:                                               ; preds = %9, %8
  %.sink17 = phi double [ %15, %9 ], [ 1.000000e+00, %8 ]
  %.sink = phi double [ %17, %9 ], [ 0.000000e+00, %8 ]
  %19 = getelementptr inbounds nuw i8, ptr %2, i64 8
  store double %.sink17, ptr %19, align 8, !tbaa !24
  %20 = getelementptr inbounds nuw i8, ptr %2, i64 16
  store double %.sink, ptr %20, align 8, !tbaa !24
  ret void
}